target datalayout = "e-m:e-p270:32:32-p271:32:32-p272:64:64-i64:64-i128:128-f80:128-n8:16:32:64-S128"
target triple = "x86_64-pc-linux-gnu"

%"struct.folly::unsafe_default_initialized_cv" = type { i8 }
%"struct.std::array" = type { [2 x i64] }
%"class.folly::Range" = type { ptr, ptr }
%"class.std::__cxx11::basic_string" = type { %"struct.std::__cxx11::basic_string<char>::_Alloc_hider", i64, %union.anon }
%"struct.std::__cxx11::basic_string<char>::_Alloc_hider" = type { ptr }
%union.anon = type { i64, [8 x i8] }
%"struct.folly::json::serialization_opts" = type { i8, i8, i8, i8, i32, i8, i8, i8, i8, i8, %"class.folly::Function", i8, i8, i32, i32, i32, i8, i8, i32, %"struct.std::array", [8 x i8] }
%"class.folly::Function" = type { %"union.folly::detail::function::Data", ptr, ptr }
%"union.folly::detail::function::Data" = type { %"struct.folly::detail::function::Data::BigTrivialLayout", [24 x i8] }
%"struct.folly::detail::function::Data::BigTrivialLayout" = type { ptr, i64, i64 }
%"struct.folly::dynamic" = type { i32, %"union.folly::dynamic::Data" }
%"union.folly::dynamic::Data" = type { %"class.std::__cxx11::basic_string" }

@_ZN5folly26unsafe_default_initializedE = linkonce_odr constant %"struct.folly::unsafe_default_initialized_cv" undef, comdat, align 1

; Function Attrs: noinline noreturn nounwind uwtable
define linkonce_odr hidden void @__clang_call_terminate(ptr noundef %0) #4 comdat {
  %2 = call ptr @__cxa_begin_catch(ptr %0) #33
  call void @_ZSt9terminatev() #34
  unreachable
}

; Function Attrs: mustprogress nounwind uwtable
define linkonce_odr noundef i64 @_ZNK5folly8FunctionIKFbRKNS_7dynamicES3_EE4execENS_6detail8function2OpEPNS7_4DataESA_(ptr noundef nonnull align 16 dereferenceable(64) %0, i32 noundef %1, ptr noundef %2, ptr noundef %3) #3 comdat align 2 {
  %5 = alloca i64, align 8
  %6 = alloca ptr, align 8
  %7 = alloca i32, align 4
  %8 = alloca ptr, align 8
  %9 = alloca ptr, align 8
  store ptr %0, ptr %6, align 8, !tbaa !234
  store i32 %1, ptr %7, align 4, !tbaa !244
  store ptr %2, ptr %8, align 8, !tbaa !240
  store ptr %3, ptr %9, align 8, !tbaa !240
  %10 = load ptr, ptr %6, align 8
  %11 = getelementptr inbounds nuw %"class.folly::Function", ptr %10, i32 0, i32 2
  %12 = load ptr, ptr %11, align 8, !tbaa !237
  %13 = icmp ne ptr %12, null
  br i1 %13, label %15, label %14

14:                                               ; preds = %4
  store i64 0, ptr %5, align 8
  br label %22

15:                                               ; preds = %4
  %16 = getelementptr inbounds nuw %"class.folly::Function", ptr %10, i32 0, i32 2
  %17 = load ptr, ptr %16, align 8, !tbaa !237
  %18 = load i32, ptr %7, align 4, !tbaa !244
  %19 = load ptr, ptr %8, align 8, !tbaa !240
  %20 = load ptr, ptr %9, align 8, !tbaa !240
  %21 = call noundef i64 %17(i32 noundef %18, ptr noundef %19, ptr noundef %20) #33
  store i64 %21, ptr %5, align 8
  br label %22

22:                                               ; preds = %15, %14
  %23 = load i64, ptr %5, align 8
  ret i64 %23
}

; Function Attrs: alwaysinline mustprogress nounwind uwtable
define linkonce_odr hidden noundef ptr @_ZNK5folly29unsafe_default_initialized_cvcvT_IPvEEv(ptr noundef nonnull align 1 dereferenceable(1) %0) #5 comdat align 2 {
  %2 = alloca ptr, align 8
  store ptr %0, ptr %2, align 8, !tbaa !238
  ret ptr null
}

; Function Attrs: mustprogress nounwind uwtable
define linkonce_odr void @_ZN5folly8FunctionIKFbRKNS_7dynamicES3_EED2Ev(ptr noundef nonnull align 16 dereferenceable(64) %0) unnamed_addr #3 comdat align 2 personality ptr @__gxx_personality_v0 {
  %2 = alloca ptr, align 8
  store ptr %0, ptr %2, align 8, !tbaa !234
  %3 = load ptr, ptr %2, align 8
  %4 = getelementptr inbounds nuw %"class.folly::Function", ptr %3, i32 0, i32 0
  %5 = invoke noundef i64 @_ZNK5folly8FunctionIKFbRKNS_7dynamicES3_EE4execENS_6detail8function2OpEPNS7_4DataESA_(ptr noundef nonnull align 16 dereferenceable(64) %3, i32 noundef 1, ptr noundef %4, ptr noundef null)
          to label %6 unwind label %7

6:                                                ; preds = %1
  ret void

7:                                                ; preds = %1
  %8 = landingpad { ptr, i32 }
          catch ptr null
  %9 = extractvalue { ptr, i32 } %8, 0
  call void @__clang_call_terminate(ptr %9) #34
  unreachable
}

; Function Attrs: mustprogress nounwind uwtable
define linkonce_odr void @_ZN5folly8FunctionIKFbRKNS_7dynamicES3_EEC2Ev(ptr noundef nonnull align 16 dereferenceable(64) %0) unnamed_addr #3 comdat align 2 {
  %2 = alloca ptr, align 8
  store ptr %0, ptr %2, align 8, !tbaa !234
  %3 = load ptr, ptr %2, align 8
  %4 = getelementptr inbounds nuw %"class.folly::Function", ptr %3, i32 0, i32 0
  %5 = call noundef ptr @_ZNK5folly29unsafe_default_initialized_cvcvT_IPvEEv(ptr noundef nonnull align 1 dereferenceable(1) @_ZN5folly26unsafe_default_initializedE) #33
  store ptr %5, ptr %4, align 16, !tbaa !14
  %6 = getelementptr inbounds nuw %"class.folly::Function", ptr %3, i32 0, i32 1
  store ptr @_ZN5folly6detail8function14FunctionTraitsIKFbRKNS_7dynamicES5_EE10uninitCallES5_S5_RNS1_4DataE, ptr %6, align 16, !tbaa !236
  %7 = getelementptr inbounds nuw %"class.folly::Function", ptr %3, i32 0, i32 2
  store ptr null, ptr %7, align 8, !tbaa !237
  ret void
}

; Function Attrs: inlinehint mustprogress nounwind uwtable
define linkonce_odr void @_ZN5folly4json18serialization_optsD2Ev(ptr noundef nonnull align 16 dereferenceable(120) %0) unnamed_addr #6 comdat align 2 {
  %2 = alloca ptr, align 8
  store ptr %0, ptr %2, align 8, !tbaa !31
  %3 = load ptr, ptr %2, align 8
  %4 = getelementptr inbounds nuw %"struct.folly::json::serialization_opts", ptr %3, i32 0, i32 10
  call void @_ZN5folly8FunctionIKFbRKNS_7dynamicES3_EED2Ev(ptr noundef nonnull align 16 dereferenceable(64) %4) #33
  ret void
}

; Function Attrs: inlinehint mustprogress nounwind uwtable
define linkonce_odr void @_ZN5folly4json18serialization_optsC2Ev(ptr noundef nonnull align 16 dereferenceable(120) %0) unnamed_addr #6 comdat align 2 {
  %2 = alloca ptr, align 8
  store ptr %0, ptr %2, align 8, !tbaa !31
  %3 = load ptr, ptr %2, align 8
  %4 = getelementptr inbounds nuw %"struct.folly::json::serialization_opts", ptr %3, i32 0, i32 0
  store i8 0, ptr %4, align 16, !tbaa !223
  %5 = getelementptr inbounds nuw %"struct.folly::json::serialization_opts", ptr %3, i32 0, i32 1
  store i8 0, ptr %5, align 1, !tbaa !224
  %6 = getelementptr inbounds nuw %"struct.folly::json::serialization_opts", ptr %3, i32 0, i32 2
  store i8 0, ptr %6, align 2, !tbaa !60
  %7 = getelementptr inbounds nuw %"struct.folly::json::serialization_opts", ptr %3, i32 0, i32 3
  store i8 0, ptr %7, align 1, !tbaa !35
  %8 = getelementptr inbounds nuw %"struct.folly::json::serialization_opts", ptr %3, i32 0, i32 4
  store i32 2, ptr %8, align 4, !tbaa !225
  %9 = getelementptr inbounds nuw %"struct.folly::json::serialization_opts", ptr %3, i32 0, i32 5
  store i8 0, ptr %9, align 8, !tbaa !226
  %10 = getelementptr inbounds nuw %"struct.folly::json::serialization_opts", ptr %3, i32 0, i32 6
  store i8 0, ptr %10, align 1, !tbaa !227
  %11 = getelementptr inbounds nuw %"struct.folly::json::serialization_opts", ptr %3, i32 0, i32 7
  store i8 0, ptr %11, align 2, !tbaa !228
  %12 = getelementptr inbounds nuw %"struct.folly::json::serialization_opts", ptr %3, i32 0, i32 8
  store i8 0, ptr %12, align 1, !tbaa !229
  %13 = getelementptr inbounds nuw %"struct.folly::json::serialization_opts", ptr %3, i32 0, i32 9
  store i8 0, ptr %13, align 4, !tbaa !88
  %14 = getelementptr inbounds nuw %"struct.folly::json::serialization_opts", ptr %3, i32 0, i32 10
  call void @_ZN5folly8FunctionIKFbRKNS_7dynamicES3_EEC2Ev(ptr noundef nonnull align 16 dereferenceable(64) %14) #33
  %15 = getelementptr inbounds nuw %"struct.folly::json::serialization_opts", ptr %3, i32 0, i32 11
  store i8 0, ptr %15, align 16, !tbaa !230
  %16 = getelementptr inbounds nuw %"struct.folly::json::serialization_opts", ptr %3, i32 0, i32 12
  store i8 0, ptr %16, align 1, !tbaa !55
  %17 = getelementptr inbounds nuw %"struct.folly::json::serialization_opts", ptr %3, i32 0, i32 13
  store i32 0, ptr %17, align 4, !tbaa !57
  %18 = getelementptr inbounds nuw %"struct.folly::json::serialization_opts", ptr %3, i32 0, i32 14
  store i32 0, ptr %18, align 8, !tbaa !58
  %19 = getelementptr inbounds nuw %"struct.folly::json::serialization_opts", ptr %3, i32 0, i32 15
  store i32 0, ptr %19, align 4, !tbaa !59
  %20 = getelementptr inbounds nuw %"struct.folly::json::serialization_opts", ptr %3, i32 0, i32 16
  store i8 0, ptr %20, align 16, !tbaa !231
  %21 = getelementptr inbounds nuw %"struct.folly::json::serialization_opts", ptr %3, i32 0, i32 17
  store i8 0, ptr %21, align 1, !tbaa !232
  %22 = getelementptr inbounds nuw %"struct.folly::json::serialization_opts", ptr %3, i32 0, i32 18
  store i32 100, ptr %22, align 4, !tbaa !233
  %23 = getelementptr inbounds nuw %"struct.folly::json::serialization_opts", ptr %3, i32 0, i32 19
  %24 = getelementptr inbounds nuw %"struct.std::array", ptr %23, i32 0, i32 0
  call void @llvm.memset.p0.i64(ptr align 8 %24, i8 0, i64 16, i1 false)
  ret void
}

; Function Attrs: mustprogress uwtable
define void @_ZN5folly9parseJsonENS_5RangeIPKcEE(ptr dead_on_unwind noalias writable sret(%"struct.folly::dynamic") align 8 %0, ptr %1, ptr %2) #0 personality ptr @__gxx_personality_v0 {
  %4 = alloca ptr, align 8
  %5 = alloca %"class.folly::Range", align 8
  %6 = alloca %"class.folly::Range", align 8
  %7 = alloca %"struct.folly::json::serialization_opts", align 16
  %8 = alloca ptr, align 8
  %9 = alloca i32, align 4
  store ptr %0, ptr %4, align 8
  %10 = getelementptr inbounds nuw { ptr, ptr }, ptr %5, i32 0, i32 0
  store ptr %1, ptr %10, align 8
  %11 = getelementptr inbounds nuw { ptr, ptr }, ptr %5, i32 0, i32 1
  store ptr %2, ptr %11, align 8
  call void @llvm.memcpy.p0.p0.i64(ptr align 8 %6, ptr align 8 %5, i64 16, i1 false), !tbaa.struct !87
  call void @llvm.lifetime.start.p0(i64 128, ptr %7) #33
  call void @llvm.memset.p0.i64(ptr align 16 %7, i8 0, i64 128, i1 false)
  call void @_ZN5folly4json18serialization_optsC2Ev(ptr noundef nonnull align 16 dereferenceable(120) %7) #33
  %12 = getelementptr inbounds nuw { ptr, ptr }, ptr %6, i32 0, i32 0
  %13 = load ptr, ptr %12, align 8
  %14 = getelementptr inbounds nuw { ptr, ptr }, ptr %6, i32 0, i32 1
  %15 = load ptr, ptr %14, align 8
  invoke void @_ZN5folly9parseJsonENS_5RangeIPKcEERKNS_4json18serialization_optsE(ptr dead_on_unwind writable sret(%"struct.folly::dynamic") align 8 %0, ptr %13, ptr %15, ptr noundef nonnull align 16 dereferenceable(120) %7)
          to label %16 unwind label %17

16:                                               ; preds = %3
  call void @_ZN5folly4json18serialization_optsD2Ev(ptr noundef nonnull align 16 dereferenceable(120) %7) #33
  call void @llvm.lifetime.end.p0(i64 128, ptr %7) #33
  ret void

17:                                               ; preds = %3
  %18 = landingpad { ptr, i32 }
          cleanup
  %19 = extractvalue { ptr, i32 } %18, 0
  store ptr %19, ptr %8, align 8
  %20 = extractvalue { ptr, i32 } %18, 1
  store i32 %20, ptr %9, align 4
  call void @_ZN5folly4json18serialization_optsD2Ev(ptr noundef nonnull align 16 dereferenceable(120) %7) #33
  call void @llvm.lifetime.end.p0(i64 128, ptr %7) #33
  br label %21

21:                                               ; preds = %17
  %22 = load ptr, ptr %8, align 8
  %23 = load i32, ptr %9, align 4
  %24 = insertvalue { ptr, i32 } poison, ptr %22, 0
  %25 = insertvalue { ptr, i32 } %24, i32 %23, 1
  resume { ptr, i32 } %25
}