; Function Attrs: mustprogress uwtable
define void @_ZN5folly9parseJsonENS_5RangeIPKcEE(ptr dead_on_unwind noalias writable sret(%"struct.folly::dynamic") align 8 %0, ptr %1, ptr %2) local_unnamed_addr #3 personality ptr @__gxx_personality_v0 {
  %4 = alloca %"struct.folly::json::serialization_opts", align 16
  call void @llvm.lifetime.start.p0(i64 128, ptr nonnull %4) #31
  %5 = getelementptr inbounds nuw i8, ptr %4, i64 4
  call void @llvm.memset.p0.i64(ptr noundef nonnull align 16 dereferenceable(128) %4, i8 0, i64 128, i1 false)
  store i32 2, ptr %5, align 4, !tbaa !207
  %6 = getelementptr inbounds nuw i8, ptr %4, i64 8
  %7 = getelementptr inbounds nuw i8, ptr %4, i64 16
  %8 = getelementptr inbounds nuw i8, ptr %4, i64 64
  call void @llvm.memset.p0.i64(ptr noundef nonnull align 8 dereferenceable(5) %6, i8 0, i64 5, i1 false)
  store ptr @_ZN5folly6detail8function14FunctionTraitsIKFbRKNS_7dynamicES5_EE10uninitCallES5_S5_RNS1_4DataE, ptr %8, align 16, !tbaa !62
  %9 = getelementptr inbounds nuw i8, ptr %4, i64 72
  %10 = getelementptr inbounds nuw i8, ptr %4, i64 80
  store i8 0, ptr %10, align 16, !tbaa !208
  %11 = getelementptr inbounds nuw i8, ptr %4, i64 84
  %12 = getelementptr inbounds nuw i8, ptr %4, i64 100
  call void @llvm.memset.p0.i64(ptr noundef nonnull align 4 dereferenceable(14) %11, i8 0, i64 14, i1 false)
  store i32 100, ptr %12, align 4, !tbaa !209
  %13 = getelementptr inbounds nuw i8, ptr %4, i64 104
  call void @llvm.memset.p0.i64(ptr noundef nonnull align 8 dereferenceable(16) %13, i8 0, i64 16, i1 false)
  invoke void @_ZN5folly9parseJsonENS_5RangeIPKcEERKNS_4json18serialization_optsE(ptr dead_on_unwind writable sret(%"struct.folly::dynamic") align 8 %0, ptr %1, ptr %2, ptr noundef nonnull align 16 dereferenceable(120) %4)
          to label %14 unwind label %18

14:                                               ; preds = %3
  %15 = load ptr, ptr %9, align 8, !tbaa !54
  %.not.i.i.i = icmp eq ptr %15, null
  br i1 %.not.i.i.i, label %_ZN5folly4json18serialization_optsD2Ev.exit, label %16

16:                                               ; preds = %14
  %17 = call noundef i64 %15(i32 noundef 1, ptr noundef nonnull align 16 dereferenceable(64) %7, ptr noundef null) #31
  br label %_ZN5folly4json18serialization_optsD2Ev.exit

_ZN5folly4json18serialization_optsD2Ev.exit:      ; preds = %14, %16
  call void @llvm.lifetime.end.p0(i64 128, ptr nonnull %4) #31
  ret void

18:                                               ; preds = %3
  %19 = landingpad { ptr, i32 }
          cleanup
  %20 = load ptr, ptr %9, align 8, !tbaa !54
  %.not.i.i.i3 = icmp eq ptr %20, null
  br i1 %.not.i.i.i3, label %_ZN5folly4json18serialization_optsD2Ev.exit4, label %21

21:                                               ; preds = %18
  %22 = call noundef i64 %20(i32 noundef 1, ptr noundef nonnull align 16 dereferenceable(64) %7, ptr noundef null) #31
  br label %_ZN5folly4json18serialization_optsD2Ev.exit4

_ZN5folly4json18serialization_optsD2Ev.exit4:     ; preds = %18, %21
  call void @llvm.lifetime.end.p0(i64 128, ptr nonnull %4) #31
  resume { ptr, i32 } %19
}